; Function Attrs: nounwind uwtable
define ptr @l_Lean_Elab_Tactic_grind___boxed(ptr noundef %0, ptr noundef %1, ptr noundef %2, ptr noundef %3, ptr noundef %4, ptr noundef %5, ptr noundef %6, ptr noundef %7, ptr noundef %8, ptr noundef %9, ptr noundef %10, ptr noundef %11, ptr noundef %12, ptr noundef %13) local_unnamed_addr #0 {
  %15 = ptrtoint ptr %2 to i64
  %16 = and i64 %15, 1
  %.not = icmp eq i64 %16, 0
  br i1 %.not, label %17, label %lean_dec.exit

17:                                               ; preds = %14
  %18 = load i32, ptr %2, align 4, !tbaa !8
  %19 = icmp sgt i32 %18, 1
  br i1 %19, label %20, label %22, !prof !11

20:                                               ; preds = %17
  %21 = add nsw i32 %18, -1
  store i32 %21, ptr %2, align 4, !tbaa !8
  br label %lean_dec.exit

22:                                               ; preds = %17
  %.not.i = icmp eq i32 %18, 0
  br i1 %.not.i, label %lean_dec.exit, label %23

23:                                               ; preds = %22
  tail call void @lean_dec_ref_cold(ptr noundef nonnull %2) #5
  br label %lean_dec.exit

lean_dec.exit:                                    ; preds = %23, %22, %20, %14
  %24 = ptrtoint ptr %0 to i64
  %25 = and i64 %24, 1
  %.not.i16 = icmp eq i64 %25, 0
  br i1 %.not.i16, label %26, label %lean_inc.exit.i

26:                                               ; preds = %lean_dec.exit
  %.val.i.i = load i32, ptr %0, align 4, !tbaa !8
  %27 = icmp sgt i32 %.val.i.i, 0
  br i1 %27, label %28, label %30, !prof !11

28:                                               ; preds = %26
  %29 = add nuw i32 %.val.i.i, 1
  store i32 %29, ptr %0, align 4, !tbaa !8
  br label %lean_inc.exit.i

30:                                               ; preds = %26
  %.not.i.i = icmp eq i32 %.val.i.i, 0
  br i1 %.not.i.i, label %lean_inc.exit.i, label %31

31:                                               ; preds = %30
  tail call void @lean_inc_ref_cold(ptr noundef nonnull %0) #5
  br label %lean_inc.exit.i

lean_inc.exit.i:                                  ; preds = %31, %30, %28, %lean_dec.exit
  tail call void @lean_inc_heartbeat() #5
  %32 = tail call noalias ptr @mi_malloc_small(i64 noundef 64) #5
  %33 = icmp eq ptr %32, null
  br i1 %33, label %34, label %l_Lean_Elab_Tactic_grind.exit

34:                                               ; preds = %lean_inc.exit.i
  tail call void @lean_internal_panic_out_of_memory() #6
  unreachable

l_Lean_Elab_Tactic_grind.exit:                    ; preds = %lean_inc.exit.i
  %35 = and i64 %15, 510
  %36 = or disjoint i64 %35, 1
  %37 = inttoptr i64 %36 to ptr
  %38 = getelementptr inbounds nuw i8, ptr %32, i64 4
  store i32 1, ptr %32, align 4, !tbaa !8
  store i32 -184549312, ptr %38, align 4
  %39 = getelementptr inbounds nuw i8, ptr %32, i64 8
  store ptr @l_Lean_Elab_Tactic_grind___lambda__3___boxed, ptr %39, align 8, !tbaa !4
  %40 = getelementptr inbounds nuw i8, ptr %32, i64 16
  store i16 14, ptr %40, align 8, !tbaa !16
  %41 = getelementptr inbounds nuw i8, ptr %32, i64 18
  store i16 5, ptr %41, align 2, !tbaa !16
  %42 = getelementptr inbounds nuw i8, ptr %32, i64 24
  store ptr %1, ptr %42, align 8, !tbaa !4
  %43 = getelementptr inbounds nuw i8, ptr %32, i64 32
  store ptr %37, ptr %43, align 8, !tbaa !4
  %44 = getelementptr inbounds nuw i8, ptr %32, i64 40
  store ptr %3, ptr %44, align 8, !tbaa !4
  %45 = getelementptr inbounds nuw i8, ptr %32, i64 48
  store ptr %0, ptr %45, align 8, !tbaa !4
  %46 = getelementptr inbounds nuw i8, ptr %32, i64 56
  store ptr %4, ptr %46, align 8, !tbaa !4
  %47 = tail call ptr @l_Lean_MVarId_withContext___at_Lean_Elab_Tactic_withMainContext___spec__1___rarg(ptr noundef %0, ptr noundef nonnull %32, ptr noundef %5, ptr noundef %6, ptr noundef %7, ptr noundef %8, ptr noundef %9, ptr noundef %10, ptr noundef %11, ptr noundef %12, ptr noundef %13) #5
  ret ptr %47
}